; Function Attrs: mustprogress uwtable
define hidden void @_ZN4lean15replace_visitor14visit_constantERKNS_4exprE(ptr dead_on_unwind noalias writable writeonly sret(%"class.lean::expr") align 8 captures(none) initializes((0, 8)) %0, ptr nonnull readnone align 8 captures(none) %1, ptr noundef nonnull readonly align 8 captures(none) dereferenceable(8) %2) unnamed_addr #0 align 2 {
  %4 = load ptr, ptr %2, align 8, !tbaa !3
  store ptr %4, ptr %0, align 8, !tbaa !3
  %5 = ptrtoint ptr %4 to i64
  %6 = and i64 %5, 1
  %.not.i.i.i = icmp eq i64 %6, 0
  br i1 %.not.i.i.i, label %7, label %_ZN4lean4exprC2ERKS0_.exit

7:                                                ; preds = %3
  %.val.i.i.i.i = load i32, ptr %4, align 4, !tbaa !8
  %8 = icmp sgt i32 %.val.i.i.i.i, 0
  br i1 %8, label %9, label %11, !prof !11

9:                                                ; preds = %7
  %10 = add nuw nsw i32 %.val.i.i.i.i, 1
  store i32 %10, ptr %4, align 4, !tbaa !8
  br label %_ZN4lean4exprC2ERKS0_.exit

11:                                               ; preds = %7
  %.not.i.i.i.i = icmp eq i32 %.val.i.i.i.i, 0
  br i1 %.not.i.i.i.i, label %_ZN4lean4exprC2ERKS0_.exit, label %12

12:                                               ; preds = %11
  tail call void @lean_inc_ref_cold(ptr noundef nonnull %4)
  br label %_ZN4lean4exprC2ERKS0_.exit

_ZN4lean4exprC2ERKS0_.exit:                       ; preds = %3, %9, %11, %12
  ret void
}